target datalayout = "e-m:e-p270:32:32-p271:32:32-p272:64:64-i64:64-i128:128-f80:128-n8:16:32:64-S128"
target triple = "x86_64-pc-linux-gnu"

%"class.zxing::qrcode::Version" = type <{ %"class.zxing::Counted.base", i32, ptr, %"class.std::vector.5", i32, [4 x i8] }>
%"class.zxing::Counted.base" = type <{ ptr, i32 }>
%"class.std::vector.5" = type { %"struct.std::_Vector_base.6" }
%"struct.std::_Vector_base.6" = type { %"struct.std::_Vector_base<zxing::qrcode::ECBlocks *, std::allocator<zxing::qrcode::ECBlocks *>>::_Vector_impl" }
%"struct.std::_Vector_base<zxing::qrcode::ECBlocks *, std::allocator<zxing::qrcode::ECBlocks *>>::_Vector_impl" = type { %"struct.std::_Vector_base<zxing::qrcode::ECBlocks *, std::allocator<zxing::qrcode::ECBlocks *>>::_Vector_impl_data" }
%"struct.std::_Vector_base<zxing::qrcode::ECBlocks *, std::allocator<zxing::qrcode::ECBlocks *>>::_Vector_impl_data" = type { ptr, ptr, ptr }
%"class.zxing::ReaderErrorHandler" = type { %"class.zxing::ErrorHandler" }
%"class.zxing::ErrorHandler" = type { ptr, i32, i32, %"class.std::__cxx11::basic_string" }
%"class.std::__cxx11::basic_string" = type { %"struct.std::__cxx11::basic_string<char>::_Alloc_hider", i64, %union.anon }
%"struct.std::__cxx11::basic_string<char>::_Alloc_hider" = type { ptr }
%union.anon = type { i64, [8 x i8] }

@_ZN5zxing6qrcodeL10N_VERSIONSE = internal global i32 0, align 4
@.str = private unnamed_addr constant [39 x i8] c"versionNumber must be between 1 and 40\00", align 1
@_ZTVN5zxing12ErrorHandlerE = external unnamed_addr constant { [10 x ptr] }, align 8

; Function Attrs: mustprogress nounwind uwtable
define linkonce_odr hidden void @_ZN5zxing12ErrorHandlerD2Ev(ptr noundef nonnull align 8 dereferenceable(48) %0) unnamed_addr #0 comdat align 2 {
  %2 = alloca ptr, align 8
  store ptr %0, ptr %2, align 8
  %3 = load ptr, ptr %2, align 8
  store ptr getelementptr inbounds inrange(-16, 64) ({ [10 x ptr] }, ptr @_ZTVN5zxing12ErrorHandlerE, i32 0, i32 0, i32 2), ptr %3, align 8
  %4 = getelementptr inbounds %"class.zxing::ErrorHandler", ptr %3, i32 0, i32 3
  call void @_ZNSt7__cxx1112basic_stringIcSt11char_traitsIcESaIcEED1Ev(ptr noundef nonnull align 8 dereferenceable(32) %4) #4
  ret void
}

; Function Attrs: mustprogress nounwind uwtable
define linkonce_odr hidden void @_ZN5zxing18ReaderErrorHandlerD2Ev(ptr noundef nonnull align 8 dereferenceable(48) %0) unnamed_addr #0 comdat align 2 {
  %2 = alloca ptr, align 8
  store ptr %0, ptr %2, align 8
  %3 = load ptr, ptr %2, align 8
  call void @_ZN5zxing12ErrorHandlerD2Ev(ptr noundef nonnull align 8 dereferenceable(48) %3) #4
  ret void
}

; Function Attrs: mustprogress uwtable
define linkonce_odr hidden void @_ZN5zxing18ReaderErrorHandlerC2EPKc(ptr noundef nonnull align 8 dereferenceable(48) %0, ptr noundef %1) unnamed_addr #1 comdat align 2 personality ptr @__gxx_personality_v0 {
  %3 = alloca ptr, align 8
  %4 = alloca ptr, align 8
  %5 = alloca ptr, align 8
  %6 = alloca i32, align 4
  store ptr %0, ptr %3, align 8
  store ptr %1, ptr %4, align 8
  %7 = load ptr, ptr %3, align 8
  %8 = load ptr, ptr %4, align 8
  call void @_ZN5zxing12ErrorHandlerC2EPKc(ptr noundef nonnull align 8 dereferenceable(48) %7, ptr noundef %8)
  store ptr getelementptr inbounds inrange(-16, 64) ({ [10 x ptr] }, ptr @_ZTVN5zxing18ReaderErrorHandlerE, i32 0, i32 0, i32 2), ptr %7, align 8
  %9 = load ptr, ptr %7, align 8
  %10 = getelementptr inbounds ptr, ptr %9, i64 5
  %11 = load ptr, ptr %10, align 8
  invoke void %11(ptr noundef nonnull align 8 dereferenceable(48) %7)
          to label %12 unwind label %13

12:                                               ; preds = %2
  ret void

13:                                               ; preds = %2
  %14 = landingpad { ptr, i32 }
          cleanup
  %15 = extractvalue { ptr, i32 } %14, 0
  store ptr %15, ptr %5, align 8
  %16 = extractvalue { ptr, i32 } %14, 1
  store i32 %16, ptr %6, align 4
  call void @_ZN5zxing12ErrorHandlerD2Ev(ptr noundef nonnull align 8 dereferenceable(48) %7) #4
  br label %17

17:                                               ; preds = %13
  %18 = load ptr, ptr %5, align 8
  %19 = load i32, ptr %6, align 4
  %20 = insertvalue { ptr, i32 } poison, ptr %18, 0
  %21 = insertvalue { ptr, i32 } %20, i32 %19, 1
  resume { ptr, i32 } %21
}

; Function Attrs: mustprogress uwtable
define hidden noundef i32 @_ZN5zxing6qrcode7Version22getDimensionForVersionERNS_12ErrorHandlerE(ptr noundef nonnull align 8 dereferenceable(52) %0, ptr noundef nonnull align 8 dereferenceable(48) %1) #1 align 2 personality ptr @__gxx_personality_v0 {
  %3 = alloca i32, align 4
  %4 = alloca ptr, align 8
  %5 = alloca ptr, align 8
  %6 = alloca %"class.zxing::ReaderErrorHandler", align 8
  %7 = alloca ptr, align 8
  %8 = alloca i32, align 4
  store ptr %0, ptr %4, align 8
  store ptr %1, ptr %5, align 8
  %9 = load ptr, ptr %4, align 8
  %10 = getelementptr inbounds %"class.zxing::qrcode::Version", ptr %9, i32 0, i32 1
  %11 = load i32, ptr %10, align 4
  %12 = icmp slt i32 %11, 1
  br i1 %12, label %18, label %13

13:                                               ; preds = %2
  %14 = getelementptr inbounds %"class.zxing::qrcode::Version", ptr %9, i32 0, i32 1
  %15 = load i32, ptr %14, align 4
  %16 = load i32, ptr @_ZN5zxing6qrcodeL10N_VERSIONSE, align 4
  %17 = icmp sgt i32 %15, %16
  br i1 %17, label %18, label %26

18:                                               ; preds = %13, %2
  call void @_ZN5zxing18ReaderErrorHandlerC2EPKc(ptr noundef nonnull align 8 dereferenceable(48) %6, ptr noundef @.str)
  %19 = load ptr, ptr %5, align 8
  %20 = invoke noundef nonnull align 8 dereferenceable(48) ptr @_ZN5zxing12ErrorHandleraSERKS0_(ptr noundef nonnull align 8 dereferenceable(48) %19, ptr noundef nonnull align 8 dereferenceable(48) %6)
          to label %21 unwind label %22

21:                                               ; preds = %18
  call void @_ZN5zxing18ReaderErrorHandlerD2Ev(ptr noundef nonnull align 8 dereferenceable(48) %6) #4
  store i32 -1, ptr %3, align 4
  br label %31

22:                                               ; preds = %18
  %23 = landingpad { ptr, i32 }
          cleanup
  %24 = extractvalue { ptr, i32 } %23, 0
  store ptr %24, ptr %7, align 8
  %25 = extractvalue { ptr, i32 } %23, 1
  store i32 %25, ptr %8, align 4
  call void @_ZN5zxing18ReaderErrorHandlerD2Ev(ptr noundef nonnull align 8 dereferenceable(48) %6) #4
  br label %33

26:                                               ; preds = %13
  %27 = getelementptr inbounds %"class.zxing::qrcode::Version", ptr %9, i32 0, i32 1
  %28 = load i32, ptr %27, align 4
  %29 = mul nsw i32 4, %28
  %30 = add nsw i32 17, %29
  store i32 %30, ptr %3, align 4
  br label %31

31:                                               ; preds = %26, %21
  %32 = load i32, ptr %3, align 4
  ret i32 %32

33:                                               ; preds = %22
  %34 = load ptr, ptr %7, align 8
  %35 = load i32, ptr %8, align 4
  %36 = insertvalue { ptr, i32 } poison, ptr %34, 0
  %37 = insertvalue { ptr, i32 } %36, i32 %35, 1
  resume { ptr, i32 } %37
}