; Function Attrs: mustprogress uwtable
define hidden noundef range(i32 -1, -2147483648) i32 @_ZN5zxing6qrcode7Version22getDimensionForVersionERNS_12ErrorHandlerE(ptr nocapture noundef nonnull readonly align 8 dereferenceable(52) %0, ptr noundef nonnull align 8 dereferenceable(48) %1) local_unnamed_addr #2 align 2 personality ptr @__gxx_personality_v0 {
  %3 = alloca %"class.zxing::ReaderErrorHandler", align 8
  %4 = getelementptr inbounds i8, ptr %0, i64 12
  %5 = load i32, ptr %4, align 4
  %6 = icmp slt i32 %5, 1
  %7 = load i32, ptr @_ZN5zxing6qrcodeL10N_VERSIONSE, align 4
  %8 = icmp sgt i32 %5, %7
  %or.cond = select i1 %6, i1 true, i1 %8
  br i1 %or.cond, label %9, label %17

9:                                                ; preds = %2
  call void @_ZN5zxing12ErrorHandlerC2EPKc(ptr noundef nonnull align 8 dereferenceable(48) %3, ptr noundef nonnull @.str)
  store ptr getelementptr inbounds inrange(-16, 64) (i8, ptr @_ZTVN5zxing18ReaderErrorHandlerE, i64 16), ptr %3, align 8
  %10 = getelementptr inbounds i8, ptr %3, i64 8
  store i32 3, ptr %10, align 8
  %11 = invoke noundef nonnull align 8 dereferenceable(48) ptr @_ZN5zxing12ErrorHandleraSERKS0_(ptr noundef nonnull align 8 dereferenceable(48) %1, ptr noundef nonnull align 8 dereferenceable(48) %3)
          to label %12 unwind label %14

12:                                               ; preds = %9
  store ptr getelementptr inbounds inrange(-16, 64) (i8, ptr @_ZTVN5zxing12ErrorHandlerE, i64 16), ptr %3, align 8
  %13 = getelementptr inbounds i8, ptr %3, i64 16
  call void @_ZNSt7__cxx1112basic_stringIcSt11char_traitsIcESaIcEED1Ev(ptr noundef nonnull align 8 dereferenceable(32) %13) #18
  br label %20

14:                                               ; preds = %9
  %15 = landingpad { ptr, i32 }
          cleanup
  store ptr getelementptr inbounds inrange(-16, 64) (i8, ptr @_ZTVN5zxing12ErrorHandlerE, i64 16), ptr %3, align 8
  %16 = getelementptr inbounds i8, ptr %3, i64 16
  call void @_ZNSt7__cxx1112basic_stringIcSt11char_traitsIcESaIcEED1Ev(ptr noundef nonnull align 8 dereferenceable(32) %16) #18
  resume { ptr, i32 } %15

17:                                               ; preds = %2
  %18 = shl nsw i32 %5, 2
  %19 = add nuw nsw i32 %18, 17
  br label %20

20:                                               ; preds = %17, %12
  %.0 = phi i32 [ -1, %12 ], [ %19, %17 ]
  ret i32 %.0
}